target datalayout = "e-m:e-p270:32:32-p271:32:32-p272:64:64-i64:64-i128:128-f80:128-n8:16:32:64-S128"
target triple = "x86_64-pc-linux-gnu"

%class.AbsSeq = type { ptr, i32, double, double, double, double, double }

@_ZTV6AbsSeq = hidden unnamed_addr constant { [8 x ptr] } { [8 x ptr] [ptr null, ptr null, ptr @_ZNK6AbsSeq5totalEv, ptr @_ZN6AbsSeq3addEd, ptr @__cxa_pure_virtual, ptr @__cxa_pure_virtual, ptr @_ZN6AbsSeq4dumpEv, ptr @_ZN6AbsSeq7dump_onEP12outputStream] }, align 8

; Function Attrs: mustprogress nounwind uwtable
define hidden void @_ZN6AbsSeqC2Ed(ptr noundef nonnull align 8 dereferenceable(56) %0, double noundef %1) unnamed_addr #1 align 2 {
  %3 = alloca ptr, align 8
  %4 = alloca double, align 8
  store ptr %0, ptr %3, align 8
  store double %1, ptr %4, align 8
  %5 = load ptr, ptr %3, align 8
  store ptr getelementptr inbounds inrange(-16, 48) ({ [8 x ptr] }, ptr @_ZTV6AbsSeq, i32 0, i32 0, i32 2), ptr %5, align 8
  %6 = getelementptr inbounds %class.AbsSeq, ptr %5, i32 0, i32 1
  store i32 0, ptr %6, align 8
  %7 = getelementptr inbounds %class.AbsSeq, ptr %5, i32 0, i32 2
  store double 0.000000e+00, ptr %7, align 8
  %8 = getelementptr inbounds %class.AbsSeq, ptr %5, i32 0, i32 3
  store double 0.000000e+00, ptr %8, align 8
  %9 = getelementptr inbounds %class.AbsSeq, ptr %5, i32 0, i32 4
  store double 0.000000e+00, ptr %9, align 8
  %10 = getelementptr inbounds %class.AbsSeq, ptr %5, i32 0, i32 5
  store double 0.000000e+00, ptr %10, align 8
  %11 = getelementptr inbounds %class.AbsSeq, ptr %5, i32 0, i32 6
  %12 = load double, ptr %4, align 8
  store double %12, ptr %11, align 8
  ret void
}